target datalayout = "e-m:e-p270:32:32-p271:32:32-p272:64:64-i64:64-i128:128-f80:128-n8:16:32:64-S128"
target triple = "x86_64-pc-linux-gnu"

%struct.DdManager = type { %struct.DdNode, ptr, ptr, ptr, ptr, ptr, ptr, ptr, i32, i32, double, double, double, i32, i32, i32, i32, i32, i32, ptr, ptr, %struct.DdSubtable, i32, i32, i32, i32, i32, i32, i32, double, i32, i32, i32, ptr, i64, double, i32, ptr, ptr, ptr, ptr, ptr, ptr, ptr, i32, ptr, ptr, ptr, ptr, ptr, ptr, i32, i32, i32, double, i32, i32, i32, i32, double, double, i32, i32, i32, i32, i32, i32, i32, i32, i32, ptr, ptr, i32, i32, i32, i32, i32, i32, ptr, ptr, ptr, ptr, ptr, ptr, ptr, ptr, i32, i64, i64, i64, i32, i64, i64, double, double, double, double, double, double, i32, ptr, ptr, i64 }
%struct.DdNode = type { i32, i32, ptr, %union.anon, i64 }
%union.anon = type { %struct.DdChildren }
%struct.DdChildren = type { ptr, ptr }
%struct.DdSubtable = type { ptr, i32, i32, i32, i32, i32, i32, i32, i32, i32, i32, i32 }

; Function Attrs: nounwind uwtable
define i32 @Cudd_zddPrintCover(ptr noundef %0, ptr noundef %1) #0 {
  %3 = alloca i32, align 4
  %4 = alloca ptr, align 8
  %5 = alloca ptr, align 8
  %6 = alloca i32, align 4
  %7 = alloca i32, align 4
  %8 = alloca ptr, align 8
  store ptr %0, ptr %4, align 8
  store ptr %1, ptr %5, align 8
  %9 = load ptr, ptr %4, align 8
  %10 = getelementptr inbounds %struct.DdManager, ptr %9, i32 0, i32 16
  %11 = load i32, ptr %10, align 4
  store i32 %11, ptr %7, align 4
  %12 = load i32, ptr %7, align 4
  %13 = srem i32 %12, 2
  %14 = icmp ne i32 %13, 0
  br i1 %14, label %15, label %16

15:                                               ; preds = %2
  store i32 0, ptr %3, align 4
  br label %49

16:                                               ; preds = %2
  %17 = load i32, ptr %7, align 4
  %18 = sext i32 %17 to i64
  %19 = mul i64 4, %18
  %20 = call noalias ptr @malloc(i64 noundef %19) #4
  store ptr %20, ptr %8, align 8
  %21 = load ptr, ptr %8, align 8
  %22 = icmp eq ptr %21, null
  br i1 %22, label %23, label %26

23:                                               ; preds = %16
  %24 = load ptr, ptr %4, align 8
  %25 = getelementptr inbounds %struct.DdManager, ptr %24, i32 0, i32 86
  store i32 1, ptr %25, align 8
  store i32 0, ptr %3, align 4
  br label %49

26:                                               ; preds = %16
  store i32 0, ptr %6, align 4
  br label %27

27:                                               ; preds = %36, %26
  %28 = load i32, ptr %6, align 4
  %29 = load i32, ptr %7, align 4
  %30 = icmp slt i32 %28, %29
  br i1 %30, label %31, label %39

31:                                               ; preds = %27
  %32 = load ptr, ptr %8, align 8
  %33 = load i32, ptr %6, align 4
  %34 = sext i32 %33 to i64
  %35 = getelementptr inbounds i32, ptr %32, i64 %34
  store i32 3, ptr %35, align 4
  br label %36

36:                                               ; preds = %31
  %37 = load i32, ptr %6, align 4
  %38 = add nsw i32 %37, 1
  store i32 %38, ptr %6, align 4
  br label %27, !llvm.loop !7

39:                                               ; preds = %27
  %40 = load ptr, ptr %4, align 8
  %41 = load ptr, ptr %5, align 8
  %42 = load ptr, ptr %8, align 8
  call void @zddPrintCoverAux(ptr noundef %40, ptr noundef %41, i32 noundef 0, ptr noundef %42)
  %43 = load ptr, ptr %8, align 8
  %44 = icmp ne ptr %43, null
  br i1 %44, label %45, label %47

45:                                               ; preds = %39
  %46 = load ptr, ptr %8, align 8
  call void @free(ptr noundef %46) #5
  store ptr null, ptr %8, align 8
  br label %48

47:                                               ; preds = %39
  br label %48

48:                                               ; preds = %47, %45
  store i32 1, ptr %3, align 4
  br label %49

49:                                               ; preds = %48, %23, %15
  %50 = load i32, ptr %3, align 4
  ret i32 %50
}