; Function Attrs: nounwind uwtable
define range(i32 0, 2) i32 @Cudd_zddPrintCover(ptr noundef captures(none) %0, ptr noundef %1) local_unnamed_addr #0 {
  %3 = getelementptr inbounds nuw i8, ptr %0, i64 140
  %4 = load i32, ptr %3, align 4
  %5 = and i32 %4, 1
  %.not = icmp eq i32 %5, 0
  br i1 %.not, label %6, label %15

6:                                                ; preds = %2
  %7 = sext i32 %4 to i64
  %8 = shl nsw i64 %7, 2
  %9 = tail call noalias ptr @malloc(i64 noundef %8) #10
  %10 = icmp eq ptr %9, null
  br i1 %10, label %12, label %.preheader

.preheader:                                       ; preds = %6
  %11 = icmp sgt i32 %4, 0
  br i1 %11, label %.lr.ph.preheader, label %._crit_edge

.lr.ph.preheader:                                 ; preds = %.preheader
  %wide.trip.count = zext nneg i32 %4 to i64
  br label %.lr.ph

12:                                               ; preds = %6
  %13 = getelementptr inbounds nuw i8, ptr %0, i64 624
  store i32 1, ptr %13, align 8
  br label %15

.lr.ph:                                           ; preds = %.lr.ph.preheader, %.lr.ph
  %indvars.iv = phi i64 [ 0, %.lr.ph.preheader ], [ %indvars.iv.next, %.lr.ph ]
  %14 = getelementptr inbounds nuw i32, ptr %9, i64 %indvars.iv
  store i32 3, ptr %14, align 4
  %indvars.iv.next = add nuw nsw i64 %indvars.iv, 1
  %exitcond.not = icmp eq i64 %indvars.iv.next, %wide.trip.count
  br i1 %exitcond.not, label %._crit_edge, label %.lr.ph, !llvm.loop !7

._crit_edge:                                      ; preds = %.lr.ph, %.preheader
  tail call fastcc void @zddPrintCoverAux(ptr noundef %0, ptr noundef %1, i32 noundef 0, ptr noundef %9)
  tail call void @free(ptr noundef nonnull %9) #11
  br label %15

15:                                               ; preds = %2, %._crit_edge, %12
  %.0 = phi i32 [ 0, %12 ], [ 1, %._crit_edge ], [ 0, %2 ]
  ret i32 %.0
}